target datalayout = "e-m:e-p270:32:32-p271:32:32-p272:64:64-i64:64-i128:128-f80:128-n8:16:32:64-S128"
target triple = "x86_64-pc-linux-gnu"

%"class.LIEF::MachO::BindingInfo" = type { %"class.LIEF::Object", ptr, ptr, i32, i64, i8, ptr, i64 }
%"class.LIEF::Object" = type { ptr }

; Function Attrs: mustprogress nounwind uwtable
define void @_ZN4LIEF5MachO11BindingInfoC2ERKS1_(ptr noundef nonnull align 8 dereferenceable(64) %0, ptr noundef nonnull align 8 dereferenceable(64) %1) unnamed_addr #0 align 2 {
  %3 = alloca ptr, align 8
  %4 = alloca ptr, align 8
  store ptr %0, ptr %3, align 8, !tbaa !3
  store ptr %1, ptr %4, align 8, !tbaa !3
  %5 = load ptr, ptr %3, align 8
  %6 = load ptr, ptr %4, align 8, !tbaa !3
  call void @_ZN4LIEF6ObjectC2ERKS0_(ptr noundef nonnull align 8 dereferenceable(8) %5, ptr noundef nonnull align 8 dereferenceable(8) %6)
  store ptr getelementptr inbounds inrange(-16, 64) ({ [10 x ptr] }, ptr @_ZTVN4LIEF5MachO11BindingInfoE, i32 0, i32 0, i32 2), ptr %5, align 8, !tbaa !8
  %7 = getelementptr inbounds nuw %"class.LIEF::MachO::BindingInfo", ptr %5, i32 0, i32 1
  store ptr null, ptr %7, align 8, !tbaa !10
  %8 = getelementptr inbounds nuw %"class.LIEF::MachO::BindingInfo", ptr %5, i32 0, i32 2
  store ptr null, ptr %8, align 8, !tbaa !19
  %9 = getelementptr inbounds nuw %"class.LIEF::MachO::BindingInfo", ptr %5, i32 0, i32 3
  %10 = load ptr, ptr %4, align 8, !tbaa !3
  %11 = getelementptr inbounds nuw %"class.LIEF::MachO::BindingInfo", ptr %10, i32 0, i32 3
  %12 = load i32, ptr %11, align 8, !tbaa !20
  store i32 %12, ptr %9, align 8, !tbaa !20
  %13 = getelementptr inbounds nuw %"class.LIEF::MachO::BindingInfo", ptr %5, i32 0, i32 4
  %14 = load ptr, ptr %4, align 8, !tbaa !3
  %15 = getelementptr inbounds nuw %"class.LIEF::MachO::BindingInfo", ptr %14, i32 0, i32 4
  %16 = load i64, ptr %15, align 8, !tbaa !21
  store i64 %16, ptr %13, align 8, !tbaa !21
  %17 = getelementptr inbounds nuw %"class.LIEF::MachO::BindingInfo", ptr %5, i32 0, i32 5
  %18 = load ptr, ptr %4, align 8, !tbaa !3
  %19 = getelementptr inbounds nuw %"class.LIEF::MachO::BindingInfo", ptr %18, i32 0, i32 5
  %20 = load i8, ptr %19, align 8, !tbaa !22, !range !23, !noundef !24
  %21 = trunc i8 %20 to i1
  %22 = zext i1 %21 to i8
  store i8 %22, ptr %17, align 8, !tbaa !22
  %23 = getelementptr inbounds nuw %"class.LIEF::MachO::BindingInfo", ptr %5, i32 0, i32 6
  store ptr null, ptr %23, align 8, !tbaa !25
  %24 = getelementptr inbounds nuw %"class.LIEF::MachO::BindingInfo", ptr %5, i32 0, i32 7
  %25 = load ptr, ptr %4, align 8, !tbaa !3
  %26 = getelementptr inbounds nuw %"class.LIEF::MachO::BindingInfo", ptr %25, i32 0, i32 7
  %27 = load i64, ptr %26, align 8, !tbaa !26
  store i64 %27, ptr %24, align 8, !tbaa !26
  ret void
}