; Function Attrs: mustprogress nounwind uwtable
define void @_ZN4LIEF5MachO11BindingInfoC2ERKS1_(ptr noundef nonnull align 8 dereferenceable(64) %0, ptr noundef nonnull align 8 dereferenceable(64) %1) unnamed_addr #0 align 2 {
  tail call void @_ZN4LIEF6ObjectC2ERKS0_(ptr noundef nonnull align 8 dereferenceable(8) %0, ptr noundef nonnull align 8 dereferenceable(8) %1) #23
  store ptr getelementptr inbounds nuw inrange(-16, 64) (i8, ptr @_ZTVN4LIEF5MachO11BindingInfoE, i64 16), ptr %0, align 8, !tbaa !3
  %3 = getelementptr inbounds nuw i8, ptr %0, i64 8
  %4 = getelementptr inbounds nuw i8, ptr %0, i64 24
  %5 = getelementptr inbounds nuw i8, ptr %1, i64 24
  tail call void @llvm.memset.p0.i64(ptr noundef nonnull align 8 dereferenceable(16) %3, i8 0, i64 16, i1 false)
  %6 = load i32, ptr %5, align 8, !tbaa !6
  store i32 %6, ptr %4, align 8, !tbaa !6
  %7 = getelementptr inbounds nuw i8, ptr %0, i64 32
  %8 = getelementptr inbounds nuw i8, ptr %1, i64 32
  %9 = load i64, ptr %8, align 8, !tbaa !17
  store i64 %9, ptr %7, align 8, !tbaa !17
  %10 = getelementptr inbounds nuw i8, ptr %0, i64 40
  %11 = getelementptr inbounds nuw i8, ptr %1, i64 40
  %12 = load i8, ptr %11, align 8, !tbaa !18, !range !19, !noundef !20
  store i8 %12, ptr %10, align 8, !tbaa !18
  %13 = getelementptr inbounds nuw i8, ptr %0, i64 48
  store ptr null, ptr %13, align 8, !tbaa !21
  %14 = getelementptr inbounds nuw i8, ptr %0, i64 56
  %15 = getelementptr inbounds nuw i8, ptr %1, i64 56
  %16 = load i64, ptr %15, align 8, !tbaa !22
  store i64 %16, ptr %14, align 8, !tbaa !22
  ret void
}